target datalayout = "e-m:e-p270:32:32-p271:32:32-p272:64:64-i64:64-i128:128-f80:128-n8:16:32:64-S128"
target triple = "x86_64-pc-linux-gnu"

%struct.strvec = type { ptr, i64, i64 }
%struct.child_process = type { %struct.strvec, %struct.strvec, i32, i32, i64, ptr, ptr, i32, i32, i32, ptr, i16, ptr }
%struct.timeval = type { i64, i64 }

@.str = private unnamed_addr constant [14 x i8] c"run-command.c\00", align 1
@.str.30 = private unnamed_addr constant [57 x i8] c"start_bg_command() does not allow non-zero clean_on_exit\00", align 1
@.str.31 = private unnamed_addr constant [11 x i8] c"background\00", align 1
@.str.32 = private unnamed_addr constant [6 x i8] c"ready\00", align 1
@.str.33 = private unnamed_addr constant [8 x i8] c"timeout\00", align 1
@.str.34 = private unnamed_addr constant [6 x i8] c"error\00", align 1

; Function Attrs: nounwind uwtable
define dso_local void @child_process_clear(ptr noundef %0) #0 {
  %2 = alloca ptr, align 8
  store ptr %0, ptr %2, align 8, !tbaa !4
  %3 = load ptr, ptr %2, align 8, !tbaa !4
  %4 = getelementptr inbounds nuw %struct.child_process, ptr %3, i32 0, i32 0
  call void @strvec_clear(ptr noundef %4)
  %5 = load ptr, ptr %2, align 8, !tbaa !4
  %6 = getelementptr inbounds nuw %struct.child_process, ptr %5, i32 0, i32 1
  call void @strvec_clear(ptr noundef %6)
  ret void
}

; Function Attrs: inlinehint nounwind uwtable
define internal i64 @git_time(ptr noundef %0) #7 {
  %2 = alloca ptr, align 8
  %3 = alloca %struct.timeval, align 8
  store ptr %0, ptr %2, align 8, !tbaa !164
  call void @llvm.lifetime.start.p0(i64 16, ptr %3) #13
  %4 = call i32 @gettimeofday(ptr noundef %3, ptr noundef null) #13
  %5 = load ptr, ptr %2, align 8, !tbaa !164
  %6 = icmp ne ptr %5, null
  br i1 %6, label %7, label %11

7:                                                ; preds = %1
  %8 = getelementptr inbounds nuw %struct.timeval, ptr %3, i32 0, i32 0
  %9 = load i64, ptr %8, align 8, !tbaa !166
  %10 = load ptr, ptr %2, align 8, !tbaa !164
  store i64 %9, ptr %10, align 8, !tbaa !91
  br label %11

11:                                               ; preds = %7, %1
  %12 = getelementptr inbounds nuw %struct.timeval, ptr %3, i32 0, i32 0
  %13 = load i64, ptr %12, align 8, !tbaa !166
  call void @llvm.lifetime.end.p0(i64 16, ptr %3) #13
  ret i64 %13
}

; Function Attrs: nounwind uwtable
define dso_local i32 @start_bg_command(ptr noundef %0, ptr noundef %1, ptr noundef %2, i32 noundef %3) #0 {
  %5 = alloca i32, align 4
  %6 = alloca ptr, align 8
  %7 = alloca ptr, align 8
  %8 = alloca ptr, align 8
  %9 = alloca i32, align 4
  %10 = alloca i32, align 4
  %11 = alloca i32, align 4
  %12 = alloca i32, align 4
  %13 = alloca i32, align 4
  %14 = alloca i64, align 8
  %15 = alloca i64, align 8
  %16 = alloca i32, align 4
  %17 = alloca i32, align 4
  store ptr %0, ptr %6, align 8, !tbaa !4
  store ptr %1, ptr %7, align 8, !tbaa !90
  store ptr %2, ptr %8, align 8, !tbaa !90
  store i32 %3, ptr %9, align 4, !tbaa !16
  call void @llvm.lifetime.start.p0(i64 4, ptr %10) #13
  store i32 1, ptr %10, align 4, !tbaa !16
  call void @llvm.lifetime.start.p0(i64 4, ptr %11) #13
  call void @llvm.lifetime.start.p0(i64 4, ptr %12) #13
  call void @llvm.lifetime.start.p0(i64 4, ptr %13) #13
  call void @llvm.lifetime.start.p0(i64 8, ptr %14) #13
  %18 = load ptr, ptr %6, align 8, !tbaa !4
  %19 = getelementptr inbounds nuw %struct.child_process, ptr %18, i32 0, i32 11
  %20 = load i16, ptr %19, align 8
  %21 = lshr i16 %20, 8
  %22 = and i16 %21, 1
  %23 = zext i16 %22 to i32
  %24 = icmp ne i32 %23, 0
  br i1 %24, label %25, label %26

25:                                               ; preds = %4
  call void (ptr, i32, ptr, ...) @BUG_fl(ptr noundef @.str, i32 noundef 1874, ptr noundef @.str.30) #16
  unreachable

26:                                               ; preds = %4
  %27 = load ptr, ptr %6, align 8, !tbaa !4
  %28 = getelementptr inbounds nuw %struct.child_process, ptr %27, i32 0, i32 5
  %29 = load ptr, ptr %28, align 8, !tbaa !163
  %30 = icmp ne ptr %29, null
  br i1 %30, label %34, label %31

31:                                               ; preds = %26
  %32 = load ptr, ptr %6, align 8, !tbaa !4
  %33 = getelementptr inbounds nuw %struct.child_process, ptr %32, i32 0, i32 5
  store ptr @.str.31, ptr %33, align 8, !tbaa !163
  br label %34

34:                                               ; preds = %31, %26
  %35 = load ptr, ptr %6, align 8, !tbaa !4
  %36 = call i32 @start_command(ptr noundef %35)
  store i32 %36, ptr %11, align 4, !tbaa !16
  %37 = load i32, ptr %11, align 4, !tbaa !16
  %38 = icmp ne i32 %37, 0
  br i1 %38, label %39, label %40

39:                                               ; preds = %34
  store i32 1, ptr %10, align 4, !tbaa !16
  br label %120

40:                                               ; preds = %34
  %41 = call i64 @git_time(ptr noundef %14)
  %42 = load i32, ptr %9, align 4, !tbaa !16
  %43 = zext i32 %42 to i64
  %44 = load i64, ptr %14, align 8, !tbaa !91
  %45 = add nsw i64 %44, %43
  store i64 %45, ptr %14, align 8, !tbaa !91
  br label %46

46:                                               ; preds = %115, %73, %40
  %47 = load ptr, ptr %6, align 8, !tbaa !4
  %48 = getelementptr inbounds nuw %struct.child_process, ptr %47, i32 0, i32 2
  %49 = load i32, ptr %48, align 8, !tbaa !48
  %50 = call i32 @waitpid(i32 noundef %49, ptr noundef %12, i32 noundef 1)
  store i32 %50, ptr %13, align 4, !tbaa !16
  %51 = load i32, ptr %13, align 4, !tbaa !16
  %52 = icmp ne i32 %51, 0
  br i1 %52, label %77, label %53

53:                                               ; preds = %46
  %54 = load ptr, ptr %7, align 8, !tbaa !90
  %55 = load ptr, ptr %6, align 8, !tbaa !4
  %56 = load ptr, ptr %8, align 8, !tbaa !90
  %57 = call i32 %54(ptr noundef %55, ptr noundef %56)
  store i32 %57, ptr %11, align 4, !tbaa !16
  %58 = load i32, ptr %11, align 4, !tbaa !16
  %59 = icmp ne i32 %58, 0
  br i1 %59, label %62, label %60

60:                                               ; preds = %53
  %61 = load ptr, ptr %6, align 8, !tbaa !4
  call void @trace2_child_ready_fl(ptr noundef @.str, i32 noundef 1913, ptr noundef %61, ptr noundef @.str.32)
  store i32 0, ptr %10, align 4, !tbaa !16
  br label %120

62:                                               ; preds = %53
  %63 = load i32, ptr %11, align 4, !tbaa !16
  %64 = icmp sgt i32 %63, 0
  br i1 %64, label %65, label %75

65:                                               ; preds = %62
  call void @llvm.lifetime.start.p0(i64 8, ptr %15) #13
  %66 = call i64 @git_time(ptr noundef %15)
  %67 = load i64, ptr %15, align 8, !tbaa !91
  %68 = load i64, ptr %14, align 8, !tbaa !91
  %69 = icmp slt i64 %67, %68
  br i1 %69, label %70, label %71

70:                                               ; preds = %65
  store i32 3, ptr %16, align 4
  br label %73

71:                                               ; preds = %65
  %72 = load ptr, ptr %6, align 8, !tbaa !4
  call void @trace2_child_ready_fl(ptr noundef @.str, i32 noundef 1932, ptr noundef %72, ptr noundef @.str.33)
  store i32 3, ptr %10, align 4, !tbaa !16
  store i32 2, ptr %16, align 4
  br label %73

73:                                               ; preds = %71, %70
  call void @llvm.lifetime.end.p0(i64 8, ptr %15) #13
  %74 = load i32, ptr %16, align 4
  switch i32 %74, label %123 [
    i32 3, label %46
    i32 2, label %120
  ]

75:                                               ; preds = %62
  %76 = load ptr, ptr %6, align 8, !tbaa !4
  call void @trace2_child_ready_fl(ptr noundef @.str, i32 noundef 1940, ptr noundef %76, ptr noundef @.str.34)
  store i32 2, ptr %10, align 4, !tbaa !16
  br label %120

77:                                               ; preds = %46
  %78 = load i32, ptr %13, align 4, !tbaa !16
  %79 = load ptr, ptr %6, align 8, !tbaa !4
  %80 = getelementptr inbounds nuw %struct.child_process, ptr %79, i32 0, i32 2
  %81 = load i32, ptr %80, align 8, !tbaa !48
  %82 = icmp eq i32 %78, %81
  br i1 %82, label %83, label %108

83:                                               ; preds = %77
  call void @llvm.lifetime.start.p0(i64 4, ptr %17) #13
  store i32 -1, ptr %17, align 4, !tbaa !16
  %84 = load i32, ptr %12, align 4, !tbaa !16
  %85 = and i32 %84, 127
  %86 = icmp eq i32 %85, 0
  br i1 %86, label %87, label %91

87:                                               ; preds = %83
  %88 = load i32, ptr %12, align 4, !tbaa !16
  %89 = and i32 %88, 65280
  %90 = ashr i32 %89, 8
  store i32 %90, ptr %17, align 4, !tbaa !16
  br label %104

91:                                               ; preds = %83
  %92 = load i32, ptr %12, align 4, !tbaa !16
  %93 = and i32 %92, 127
  %94 = add nsw i32 %93, 1
  %95 = trunc i32 %94 to i8
  %96 = sext i8 %95 to i32
  %97 = ashr i32 %96, 1
  %98 = icmp sgt i32 %97, 0
  br i1 %98, label %99, label %103

99:                                               ; preds = %91
  %100 = load i32, ptr %12, align 4, !tbaa !16
  %101 = and i32 %100, 127
  %102 = add nsw i32 %101, 128
  store i32 %102, ptr %17, align 4, !tbaa !16
  br label %103

103:                                              ; preds = %99, %91
  br label %104

104:                                              ; preds = %103, %87
  %105 = load ptr, ptr %6, align 8, !tbaa !4
  %106 = load i32, ptr %17, align 4, !tbaa !16
  call void @trace2_child_exit_fl(ptr noundef @.str, i32 noundef 1967, ptr noundef %105, i32 noundef %106)
  store i32 4, ptr %10, align 4, !tbaa !16
  store i32 2, ptr %16, align 4
  call void @llvm.lifetime.end.p0(i64 4, ptr %17) #13
  %107 = load i32, ptr %16, align 4
  switch i32 %107, label %123 [
    i32 2, label %120
  ]

108:                                              ; preds = %77
  %109 = load i32, ptr %13, align 4, !tbaa !16
  %110 = icmp slt i32 %109, 0
  br i1 %110, label %111, label %116

111:                                              ; preds = %108
  %112 = call ptr @__errno_location() #15
  %113 = load i32, ptr %112, align 4, !tbaa !16
  %114 = icmp eq i32 %113, 4
  br i1 %114, label %115, label %116

115:                                              ; preds = %111
  br label %46

116:                                              ; preds = %111, %108
  br label %117

117:                                              ; preds = %116
  br label %118

118:                                              ; preds = %117
  %119 = load ptr, ptr %6, align 8, !tbaa !4
  call void @trace2_child_exit_fl(ptr noundef @.str, i32 noundef 1976, ptr noundef %119, i32 noundef -1)
  store i32 1, ptr %10, align 4, !tbaa !16
  br label %120

120:                                              ; preds = %118, %104, %73, %75, %60, %39
  %121 = load ptr, ptr %6, align 8, !tbaa !4
  call void @child_process_clear(ptr noundef %121)
  call void @invalidate_lstat_cache()
  %122 = load i32, ptr %10, align 4, !tbaa !16
  store i32 %122, ptr %5, align 4
  store i32 1, ptr %16, align 4
  br label %123

123:                                              ; preds = %120, %104, %73
  call void @llvm.lifetime.end.p0(i64 8, ptr %14) #13
  call void @llvm.lifetime.end.p0(i64 4, ptr %13) #13
  call void @llvm.lifetime.end.p0(i64 4, ptr %12) #13
  call void @llvm.lifetime.end.p0(i64 4, ptr %11) #13
  call void @llvm.lifetime.end.p0(i64 4, ptr %10) #13
  %124 = load i32, ptr %5, align 4
  ret i32 %124
}