; Function Attrs: nounwind uwtable
define dso_local range(i32 0, 5) i32 @start_bg_command(ptr noundef %0, ptr noundef readonly captures(none) %1, ptr noundef %2, i32 noundef %3) local_unnamed_addr #3 {
  %5 = alloca %struct.timeval, align 8
  %6 = alloca %struct.timeval, align 8
  %7 = alloca i32, align 4
  call void @llvm.lifetime.start.p0(i64 4, ptr nonnull %7) #21
  %8 = getelementptr inbounds nuw i8, ptr %0, i64 104
  %9 = load i16, ptr %8, align 8
  %10 = and i16 %9, 256
  %.not = icmp eq i16 %10, 0
  br i1 %.not, label %12, label %11

11:                                               ; preds = %4
  tail call void (ptr, i32, ptr, ...) @BUG_fl(ptr noundef nonnull @.str, i32 noundef 1874, ptr noundef nonnull @.str.30) #24
  unreachable

12:                                               ; preds = %4
  %13 = getelementptr inbounds nuw i8, ptr %0, i64 64
  %14 = load ptr, ptr %13, align 8, !tbaa !147
  %.not32 = icmp eq ptr %14, null
  br i1 %.not32, label %15, label %16

15:                                               ; preds = %12
  store ptr @.str.31, ptr %13, align 8, !tbaa !147
  br label %16

16:                                               ; preds = %15, %12
  %17 = tail call i32 @start_command(ptr noundef nonnull %0)
  %.not33 = icmp eq i32 %17, 0
  br i1 %.not33, label %18, label %58

18:                                               ; preds = %16
  call void @llvm.lifetime.start.p0(i64 16, ptr nonnull %6) #21
  %19 = call i32 @gettimeofday(ptr noundef nonnull %6, ptr noundef null) #21
  %20 = load i64, ptr %6, align 8, !tbaa !148
  call void @llvm.lifetime.end.p0(i64 16, ptr nonnull %6) #21
  %21 = zext i32 %3 to i64
  %22 = add nsw i64 %20, %21
  %23 = getelementptr inbounds nuw i8, ptr %0, i64 48
  br label %.backedge

.backedge:                                        ; preds = %.backedge.backedge, %18
  %24 = load i32, ptr %23, align 8, !tbaa !62
  %25 = call i32 @waitpid(i32 noundef %24, ptr noundef nonnull %7, i32 noundef 1) #21
  %.not34 = icmp eq i32 %25, 0
  br i1 %.not34, label %26, label %36

26:                                               ; preds = %.backedge
  %27 = call i32 %1(ptr noundef nonnull %0, ptr noundef %2) #21
  %.not35 = icmp eq i32 %27, 0
  br i1 %.not35, label %28, label %29

28:                                               ; preds = %26
  call void @trace2_child_ready_fl(ptr noundef nonnull @.str, i32 noundef 1913, ptr noundef nonnull %0, ptr noundef nonnull @.str.32) #21
  br label %58

29:                                               ; preds = %26
  %30 = icmp sgt i32 %27, 0
  br i1 %30, label %31, label %35

31:                                               ; preds = %29
  call void @llvm.lifetime.start.p0(i64 16, ptr nonnull %5) #21
  %32 = call i32 @gettimeofday(ptr noundef nonnull %5, ptr noundef null) #21
  %33 = load i64, ptr %5, align 8, !tbaa !148
  call void @llvm.lifetime.end.p0(i64 16, ptr nonnull %5) #21
  %34 = icmp slt i64 %33, %22
  br i1 %34, label %.backedge.backedge, label %.thread

.thread:                                          ; preds = %31
  call void @trace2_child_ready_fl(ptr noundef nonnull @.str, i32 noundef 1932, ptr noundef nonnull %0, ptr noundef nonnull @.str.33) #21
  br label %58

35:                                               ; preds = %29
  call void @trace2_child_ready_fl(ptr noundef nonnull @.str, i32 noundef 1940, ptr noundef nonnull %0, ptr noundef nonnull @.str.34) #21
  br label %58

36:                                               ; preds = %.backedge
  %37 = load i32, ptr %23, align 8, !tbaa !62
  %38 = icmp eq i32 %25, %37
  br i1 %38, label %39, label %51

39:                                               ; preds = %36
  %40 = load i32, ptr %7, align 4, !tbaa !18
  %41 = and i32 %40, 127
  %42 = icmp eq i32 %41, 0
  br i1 %42, label %43, label %46

43:                                               ; preds = %39
  %44 = lshr i32 %40, 8
  %45 = and i32 %44, 255
  br label %50

46:                                               ; preds = %39
  %47 = shl nuw nsw i32 %41, 24
  %sext = add nuw i32 %47, 16777216
  %48 = icmp sgt i32 %sext, 33554431
  %49 = or disjoint i32 %41, 128
  %spec.select = select i1 %48, i32 %49, i32 -1
  br label %50

50:                                               ; preds = %46, %43
  %.0 = phi i32 [ %45, %43 ], [ %spec.select, %46 ]
  call void @trace2_child_exit_fl(ptr noundef nonnull @.str, i32 noundef 1967, ptr noundef nonnull %0, i32 noundef %.0) #21
  br label %58

51:                                               ; preds = %36
  %52 = icmp slt i32 %25, 0
  br i1 %52, label %53, label %57

53:                                               ; preds = %51
  %54 = tail call ptr @__errno_location() #23
  %55 = load i32, ptr %54, align 4, !tbaa !18
  %56 = icmp eq i32 %55, 4
  br i1 %56, label %.backedge.backedge, label %57

.backedge.backedge:                               ; preds = %53, %31
  br label %.backedge

57:                                               ; preds = %53, %51
  call void @trace2_child_exit_fl(ptr noundef nonnull @.str, i32 noundef 1976, ptr noundef nonnull %0, i32 noundef -1) #21
  br label %58

58:                                               ; preds = %.thread, %16, %50, %57, %35, %28
  %.028 = phi i32 [ 4, %50 ], [ 1, %57 ], [ 2, %35 ], [ 0, %28 ], [ 1, %16 ], [ 3, %.thread ]
  call void @strvec_clear(ptr noundef nonnull %0) #21
  %59 = getelementptr inbounds nuw i8, ptr %0, i64 24
  call void @strvec_clear(ptr noundef nonnull %59) #21
  call void @invalidate_lstat_cache() #21
  call void @llvm.lifetime.end.p0(i64 4, ptr nonnull %7) #21
  ret i32 %.028
}